target datalayout = "e-m:e-p270:32:32-p271:32:32-p272:64:64-i64:64-i128:128-f80:128-n8:16:32:64-S128"
target triple = "x86_64-pc-linux-gnu"

%struct._zval_struct = type { %union._zend_value, %union.anon.0, %union.anon.3 }
%union._zend_value = type { i64 }
%union.anon.0 = type { i32 }
%union.anon.3 = type { i32 }
%struct._zend_refcounted_h = type { i32, %union.anon }
%union.anon = type { i32 }
%struct._zend_string = type { %struct._zend_refcounted_h, i64, i64, [1 x i8] }
%struct._timelib_time = type { i64, i64, i64, i64, i64, i64, i64, i32, ptr, ptr, i32, %struct._timelib_rel_time, i64, i32, i32, i32, i32, i32, i32, i32, i32, i32 }
%struct._timelib_rel_time = type { i64, i64, i64, i64, i64, i64, i64, i32, i32, i32, i32, i64, %struct.anon.4, i32, i32 }
%struct.anon.4 = type { i32, i64 }
%struct._zend_execute_data = type { ptr, ptr, ptr, ptr, %struct._zval_struct, ptr, ptr, ptr, ptr }
%struct._timelib_error_container = type { ptr, ptr, i32, i32 }
%struct._timelib_error_message = type { i32, i32, i8, ptr }

@php_date_global_timezone_db = hidden global ptr null, align 8
@.str.71 = private unnamed_addr constant [51 x i8] c"Unknown or bad format (%s) at position %d (%c): %s\00", align 1
@.str.72 = private unnamed_addr constant [43 x i8] c"String '%s' contains non-relative elements\00", align 1
@date_ce_date_malformed_interval_string_exception = hidden global ptr null, align 8

; Function Attrs: nounwind uwtable
define hidden void @zim_DateInterval_createFromDateString(ptr noundef %0, ptr noundef %1) #0 {
  %3 = alloca ptr, align 8
  %4 = alloca ptr, align 8
  %5 = alloca i1, align 1
  %6 = alloca ptr, align 8
  %7 = alloca ptr, align 8
  %8 = alloca i8, align 1
  %9 = alloca i32, align 4
  %10 = alloca i8, align 1
  %11 = alloca ptr, align 8
  %12 = alloca ptr, align 8
  %13 = alloca i8, align 1
  %14 = alloca i32, align 4
  %15 = alloca ptr, align 8
  %16 = alloca ptr, align 8
  %17 = alloca ptr, align 8
  %18 = alloca ptr, align 8
  %19 = alloca ptr, align 8
  %20 = alloca i32, align 4
  %21 = alloca i32, align 4
  %22 = alloca i32, align 4
  %23 = alloca i32, align 4
  %24 = alloca i32, align 4
  %25 = alloca ptr, align 8
  %26 = alloca ptr, align 8
  %27 = alloca i32, align 4
  %28 = alloca ptr, align 8
  %29 = alloca i8, align 1
  %30 = alloca i8, align 1
  %31 = alloca i32, align 4
  store ptr %0, ptr %15, align 8
  store ptr %1, ptr %16, align 8
  store ptr null, ptr %17, align 8
  store ptr null, ptr %19, align 8
  br label %32

32:                                               ; preds = %2
  store i32 0, ptr %20, align 4
  store i32 1, ptr %21, align 4
  store i32 1, ptr %22, align 4
  %33 = load ptr, ptr %15, align 8
  %34 = getelementptr inbounds %struct._zend_execute_data, ptr %33, i32 0, i32 4
  %35 = getelementptr inbounds %struct._zval_struct, ptr %34, i32 0, i32 2
  %36 = load i32, ptr %35, align 4
  store i32 %36, ptr %23, align 4
  store i32 0, ptr %24, align 4
  store ptr null, ptr %26, align 8
  store i32 0, ptr %27, align 4
  store ptr null, ptr %28, align 8
  store i8 0, ptr %29, align 1
  store i8 0, ptr %30, align 1
  store i32 0, ptr %31, align 4
  br label %37

37:                                               ; preds = %32
  %38 = load i32, ptr %23, align 4
  %39 = load i32, ptr %21, align 4
  %40 = icmp ult i32 %38, %39
  %41 = xor i1 %40, true
  %42 = xor i1 %41, true
  %43 = zext i1 %42 to i32
  %44 = sext i32 %43 to i64
  %45 = icmp ne i64 %44, 0
  br i1 %45, label %55, label %46

46:                                               ; preds = %37
  %47 = load i32, ptr %23, align 4
  %48 = load i32, ptr %22, align 4
  %49 = icmp ugt i32 %47, %48
  %50 = xor i1 %49, true
  %51 = xor i1 %50, true
  %52 = zext i1 %51 to i32
  %53 = sext i32 %52 to i64
  %54 = icmp ne i64 %53, 0
  br i1 %54, label %55, label %58

55:                                               ; preds = %46, %37
  %56 = load i32, ptr %21, align 4
  %57 = load i32, ptr %22, align 4
  call void @zend_wrong_parameters_count_error(i32 noundef %56, i32 noundef %57)
  store i32 1, ptr %31, align 4
  br label %162

58:                                               ; preds = %46
  %59 = load ptr, ptr %15, align 8
  %60 = getelementptr inbounds %struct._zval_struct, ptr %59, i64 4
  store ptr %60, ptr %25, align 8
  %61 = load i32, ptr %24, align 4
  %62 = add i32 %61, 1
  store i32 %62, ptr %24, align 4
  %63 = load i32, ptr %24, align 4
  %64 = load i32, ptr %21, align 4
  %65 = icmp ule i32 %63, %64
  br i1 %65, label %71, label %66

66:                                               ; preds = %58
  %67 = load i8, ptr %30, align 1
  %68 = trunc i8 %67 to i1
  %69 = zext i1 %68 to i32
  %70 = icmp eq i32 %69, 1
  br label %71

71:                                               ; preds = %66, %58
  %72 = phi i1 [ true, %58 ], [ %70, %66 ]
  call void @llvm.assume(i1 %72)
  %73 = load i32, ptr %24, align 4
  %74 = load i32, ptr %21, align 4
  %75 = icmp ugt i32 %73, %74
  br i1 %75, label %81, label %76

76:                                               ; preds = %71
  %77 = load i8, ptr %30, align 1
  %78 = trunc i8 %77 to i1
  %79 = zext i1 %78 to i32
  %80 = icmp eq i32 %79, 0
  br label %81

81:                                               ; preds = %76, %71
  %82 = phi i1 [ true, %71 ], [ %80, %76 ]
  call void @llvm.assume(i1 %82)
  %83 = load i8, ptr %30, align 1
  %84 = trunc i8 %83 to i1
  br i1 %84, label %85, label %96

85:                                               ; preds = %81
  %86 = load i32, ptr %24, align 4
  %87 = load i32, ptr %23, align 4
  %88 = icmp ugt i32 %86, %87
  %89 = xor i1 %88, true
  %90 = xor i1 %89, true
  %91 = zext i1 %90 to i32
  %92 = sext i32 %91 to i64
  %93 = icmp ne i64 %92, 0
  br i1 %93, label %94, label %95

94:                                               ; preds = %85
  br label %162

95:                                               ; preds = %85
  br label %96

96:                                               ; preds = %95, %81
  %97 = load ptr, ptr %25, align 8
  %98 = getelementptr inbounds %struct._zval_struct, ptr %97, i32 1
  store ptr %98, ptr %25, align 8
  %99 = load ptr, ptr %25, align 8
  store ptr %99, ptr %26, align 8
  %100 = load ptr, ptr %26, align 8
  %101 = load i32, ptr %24, align 4
  store ptr %100, ptr %11, align 8
  store ptr %17, ptr %12, align 8
  store i8 0, ptr %13, align 1
  store i32 %101, ptr %14, align 4
  %102 = load ptr, ptr %11, align 8
  %103 = load ptr, ptr %12, align 8
  %104 = load i8, ptr %13, align 1
  %105 = trunc i8 %104 to i1
  %106 = load i32, ptr %14, align 4
  store ptr %102, ptr %6, align 8
  store ptr %103, ptr %7, align 8
  %107 = zext i1 %105 to i8
  store i8 %107, ptr %8, align 1
  store i32 %106, ptr %9, align 4
  store i8 0, ptr %10, align 1
  %108 = load ptr, ptr %6, align 8
  store ptr %108, ptr %3, align 8
  %109 = load ptr, ptr %3, align 8
  %110 = getelementptr inbounds %struct._zval_struct, ptr %109, i32 0, i32 1
  %111 = load i8, ptr %110, align 8
  %112 = zext i8 %111 to i32
  %113 = icmp eq i32 %112, 6
  br i1 %113, label %114, label %118

114:                                              ; preds = %96
  %115 = load ptr, ptr %6, align 8
  %116 = load ptr, ptr %115, align 8
  %117 = load ptr, ptr %7, align 8
  store ptr %116, ptr %117, align 8
  br label %143

118:                                              ; preds = %96
  %119 = load i8, ptr %8, align 1
  %120 = trunc i8 %119 to i1
  br i1 %120, label %121, label %130

121:                                              ; preds = %118
  %122 = load ptr, ptr %6, align 8
  store ptr %122, ptr %4, align 8
  %123 = load ptr, ptr %4, align 8
  %124 = getelementptr inbounds %struct._zval_struct, ptr %123, i32 0, i32 1
  %125 = load i8, ptr %124, align 8
  %126 = zext i8 %125 to i32
  %127 = icmp eq i32 %126, 1
  br i1 %127, label %128, label %130

128:                                              ; preds = %121
  %129 = load ptr, ptr %7, align 8
  store ptr null, ptr %129, align 8
  br label %143

130:                                              ; preds = %121, %118
  %131 = load i8, ptr %10, align 1
  %132 = trunc i8 %131 to i1
  br i1 %132, label %133, label %138

133:                                              ; preds = %130
  %134 = load ptr, ptr %6, align 8
  %135 = load ptr, ptr %7, align 8
  %136 = load i32, ptr %9, align 4
  %137 = call zeroext i1 @zend_flf_parse_arg_str_slow(ptr noundef %134, ptr noundef %135, i32 noundef %136) #13
  store i1 %137, ptr %5, align 1
  br label %144

138:                                              ; preds = %130
  %139 = load ptr, ptr %6, align 8
  %140 = load ptr, ptr %7, align 8
  %141 = load i32, ptr %9, align 4
  %142 = call zeroext i1 @zend_parse_arg_str_slow(ptr noundef %139, ptr noundef %140, i32 noundef %141) #13
  store i1 %142, ptr %5, align 1
  br label %144

143:                                              ; preds = %128, %114
  store i1 true, ptr %5, align 1
  br label %144

144:                                              ; preds = %143, %138, %133
  %145 = load i1, ptr %5, align 1
  %146 = xor i1 %145, true
  %147 = xor i1 %146, true
  %148 = xor i1 %147, true
  %149 = zext i1 %148 to i32
  %150 = sext i32 %149 to i64
  %151 = icmp ne i64 %150, 0
  br i1 %151, label %152, label %153

152:                                              ; preds = %144
  store i32 4, ptr %27, align 4
  store i32 9, ptr %31, align 4
  br label %162

153:                                              ; preds = %144
  %154 = load i32, ptr %24, align 4
  %155 = load i32, ptr %22, align 4
  %156 = icmp eq i32 %154, %155
  br i1 %156, label %160, label %157

157:                                              ; preds = %153
  %158 = load i32, ptr %22, align 4
  %159 = icmp eq i32 %158, -1
  br label %160

160:                                              ; preds = %157, %153
  %161 = phi i1 [ true, %153 ], [ %159, %157 ]
  call void @llvm.assume(i1 %161)
  br label %162

162:                                              ; preds = %160, %152, %94, %55
  %163 = load i32, ptr %31, align 4
  %164 = icmp ne i32 %163, 0
  %165 = xor i1 %164, true
  %166 = xor i1 %165, true
  %167 = zext i1 %166 to i32
  %168 = sext i32 %167 to i64
  %169 = icmp ne i64 %168, 0
  br i1 %169, label %170, label %176

170:                                              ; preds = %162
  %171 = load i32, ptr %31, align 4
  %172 = load i32, ptr %24, align 4
  %173 = load ptr, ptr %28, align 8
  %174 = load i32, ptr %27, align 4
  %175 = load ptr, ptr %26, align 8
  call void @zend_wrong_parameter_error(i32 noundef %171, i32 noundef %172, ptr noundef %173, i32 noundef %174, ptr noundef %175)
  br label %260

176:                                              ; preds = %162
  br label %177

177:                                              ; preds = %176
  %178 = load ptr, ptr %17, align 8
  %179 = getelementptr inbounds %struct._zend_string, ptr %178, i32 0, i32 3
  %180 = getelementptr inbounds [1 x i8], ptr %179, i64 0, i64 0
  %181 = load ptr, ptr %17, align 8
  %182 = getelementptr inbounds %struct._zend_string, ptr %181, i32 0, i32 2
  %183 = load i64, ptr %182, align 8
  %184 = load ptr, ptr @php_date_global_timezone_db, align 8
  %185 = icmp ne ptr %184, null
  br i1 %185, label %186, label %188

186:                                              ; preds = %177
  %187 = load ptr, ptr @php_date_global_timezone_db, align 8
  br label %190

188:                                              ; preds = %177
  %189 = call ptr @timelib_builtin_db()
  br label %190

190:                                              ; preds = %188, %186
  %191 = phi ptr [ %187, %186 ], [ %189, %188 ]
  %192 = call ptr @timelib_strtotime(ptr noundef %180, i64 noundef %183, ptr noundef %19, ptr noundef %191, ptr noundef @php_date_parse_tzfile_wrapper)
  store ptr %192, ptr %18, align 8
  %193 = load ptr, ptr %19, align 8
  %194 = getelementptr inbounds %struct._timelib_error_container, ptr %193, i32 0, i32 2
  %195 = load i32, ptr %194, align 8
  %196 = icmp sgt i32 %195, 0
  br i1 %196, label %197, label %233

197:                                              ; preds = %190
  %198 = load ptr, ptr @date_ce_date_malformed_interval_string_exception, align 8
  %199 = load ptr, ptr %17, align 8
  %200 = getelementptr inbounds %struct._zend_string, ptr %199, i32 0, i32 3
  %201 = getelementptr inbounds [1 x i8], ptr %200, i64 0, i64 0
  %202 = load ptr, ptr %19, align 8
  %203 = getelementptr inbounds %struct._timelib_error_container, ptr %202, i32 0, i32 0
  %204 = load ptr, ptr %203, align 8
  %205 = getelementptr inbounds %struct._timelib_error_message, ptr %204, i64 0
  %206 = getelementptr inbounds %struct._timelib_error_message, ptr %205, i32 0, i32 1
  %207 = load i32, ptr %206, align 4
  %208 = load ptr, ptr %19, align 8
  %209 = getelementptr inbounds %struct._timelib_error_container, ptr %208, i32 0, i32 0
  %210 = load ptr, ptr %209, align 8
  %211 = getelementptr inbounds %struct._timelib_error_message, ptr %210, i64 0
  %212 = getelementptr inbounds %struct._timelib_error_message, ptr %211, i32 0, i32 2
  %213 = load i8, ptr %212, align 8
  %214 = sext i8 %213 to i32
  %215 = icmp ne i32 %214, 0
  br i1 %215, label %216, label %224

216:                                              ; preds = %197
  %217 = load ptr, ptr %19, align 8
  %218 = getelementptr inbounds %struct._timelib_error_container, ptr %217, i32 0, i32 0
  %219 = load ptr, ptr %218, align 8
  %220 = getelementptr inbounds %struct._timelib_error_message, ptr %219, i64 0
  %221 = getelementptr inbounds %struct._timelib_error_message, ptr %220, i32 0, i32 2
  %222 = load i8, ptr %221, align 8
  %223 = sext i8 %222 to i32
  br label %225

224:                                              ; preds = %197
  br label %225

225:                                              ; preds = %224, %216
  %226 = phi i32 [ %223, %216 ], [ 32, %224 ]
  %227 = load ptr, ptr %19, align 8
  %228 = getelementptr inbounds %struct._timelib_error_container, ptr %227, i32 0, i32 0
  %229 = load ptr, ptr %228, align 8
  %230 = getelementptr inbounds %struct._timelib_error_message, ptr %229, i64 0
  %231 = getelementptr inbounds %struct._timelib_error_message, ptr %230, i32 0, i32 3
  %232 = load ptr, ptr %231, align 8
  call void (ptr, ptr, ...) @zend_throw_error(ptr noundef %198, ptr noundef @.str.71, ptr noundef %201, i32 noundef %207, i32 noundef %226, ptr noundef %232)
  br label %257

233:                                              ; preds = %190
  %234 = load ptr, ptr %18, align 8
  %235 = getelementptr inbounds %struct._timelib_time, ptr %234, i32 0, i32 14
  %236 = load i32, ptr %235, align 4
  %237 = icmp ne i32 %236, 0
  br i1 %237, label %248, label %238

238:                                              ; preds = %233
  %239 = load ptr, ptr %18, align 8
  %240 = getelementptr inbounds %struct._timelib_time, ptr %239, i32 0, i32 13
  %241 = load i32, ptr %240, align 8
  %242 = icmp ne i32 %241, 0
  br i1 %242, label %248, label %243

243:                                              ; preds = %238
  %244 = load ptr, ptr %18, align 8
  %245 = getelementptr inbounds %struct._timelib_time, ptr %244, i32 0, i32 15
  %246 = load i32, ptr %245, align 8
  %247 = icmp ne i32 %246, 0
  br i1 %247, label %248, label %253

248:                                              ; preds = %243, %238, %233
  %249 = load ptr, ptr @date_ce_date_malformed_interval_string_exception, align 8
  %250 = load ptr, ptr %17, align 8
  %251 = getelementptr inbounds %struct._zend_string, ptr %250, i32 0, i32 3
  %252 = getelementptr inbounds [1 x i8], ptr %251, i64 0, i64 0
  call void (ptr, ptr, ...) @zend_throw_error(ptr noundef %249, ptr noundef @.str.72, ptr noundef %252)
  br label %257

253:                                              ; preds = %243
  %254 = load ptr, ptr %16, align 8
  %255 = load ptr, ptr %18, align 8
  %256 = load ptr, ptr %17, align 8
  call void @date_interval_instantiate_from_time(ptr noundef %254, ptr noundef %255, ptr noundef %256)
  br label %257

257:                                              ; preds = %253, %248, %225
  %258 = load ptr, ptr %18, align 8
  call void @timelib_time_dtor(ptr noundef %258)
  %259 = load ptr, ptr %19, align 8
  call void @timelib_error_container_dtor(ptr noundef %259)
  br label %260

260:                                              ; preds = %257, %170
  ret void
}