; Function Attrs: nounwind uwtable
define hidden void @zim_DateInterval_createFromDateString(ptr noundef %0, ptr noundef %1) #0 {
  %3 = alloca ptr, align 8
  %4 = alloca ptr, align 8
  store ptr null, ptr %3, align 8
  store ptr null, ptr %4, align 8
  %5 = getelementptr inbounds i8, ptr %0, i64 44
  %6 = load i32, ptr %5, align 4
  %cond = icmp eq i32 %6, 1
  br i1 %cond, label %8, label %7

7:                                                ; preds = %2
  tail call void @zend_wrong_parameters_count_error(i32 noundef 1, i32 noundef 1) #25
  br label %.thread94

8:                                                ; preds = %2
  %9 = getelementptr inbounds i8, ptr %0, i64 80
  %10 = getelementptr inbounds i8, ptr %0, i64 88
  %11 = load i8, ptr %10, align 8
  %12 = icmp eq i8 %11, 6
  br i1 %12, label %.thread83, label %14

.thread83:                                        ; preds = %8
  %13 = load ptr, ptr %9, align 8
  store ptr %13, ptr %3, align 8
  br label %.thread87

14:                                               ; preds = %8
  %15 = call zeroext i1 @zend_parse_arg_str_slow(ptr noundef nonnull %9, ptr noundef nonnull %3, i32 noundef 1) #25
  %.fr = freeze i1 %15
  br i1 %.fr, label %..thread87_crit_edge, label %.thread94

..thread87_crit_edge:                             ; preds = %14
  %.pre = load ptr, ptr %3, align 8
  br label %.thread87

.thread94:                                        ; preds = %14, %7
  %.0103 = phi i32 [ 1, %7 ], [ 9, %14 ]
  %.057102 = phi i32 [ 0, %7 ], [ 1, %14 ]
  %.058101 = phi i32 [ 0, %7 ], [ 4, %14 ]
  %.059100 = phi ptr [ null, %7 ], [ %9, %14 ]
  call void @zend_wrong_parameter_error(i32 noundef %.0103, i32 noundef %.057102, ptr noundef null, i32 noundef %.058101, ptr noundef %.059100) #25
  br label %58

.thread87:                                        ; preds = %..thread87_crit_edge, %.thread83
  %16 = phi ptr [ %.pre, %..thread87_crit_edge ], [ %13, %.thread83 ]
  %17 = getelementptr inbounds i8, ptr %16, i64 24
  %18 = getelementptr inbounds i8, ptr %16, i64 16
  %19 = load i64, ptr %18, align 8
  %20 = load ptr, ptr @php_date_global_timezone_db, align 8
  %.not65 = icmp eq ptr %20, null
  br i1 %.not65, label %21, label %23

21:                                               ; preds = %.thread87
  %22 = call ptr @timelib_builtin_db() #25
  br label %23

23:                                               ; preds = %.thread87, %21
  %24 = phi ptr [ %22, %21 ], [ %20, %.thread87 ]
  %25 = call ptr @timelib_strtotime(ptr noundef nonnull %17, i64 noundef %19, ptr noundef nonnull %4, ptr noundef %24, ptr noundef nonnull @php_date_parse_tzfile_wrapper) #25
  %26 = load ptr, ptr %4, align 8
  %27 = getelementptr inbounds i8, ptr %26, i64 16
  %28 = load i32, ptr %27, align 8
  %29 = icmp sgt i32 %28, 0
  br i1 %29, label %30, label %41

30:                                               ; preds = %23
  %31 = load ptr, ptr @date_ce_date_malformed_interval_string_exception, align 8
  %32 = load ptr, ptr %3, align 8
  %33 = getelementptr inbounds i8, ptr %32, i64 24
  %34 = load ptr, ptr %26, align 8
  %35 = getelementptr inbounds i8, ptr %34, i64 4
  %36 = load i32, ptr %35, align 4
  %37 = getelementptr inbounds i8, ptr %34, i64 8
  %38 = load i8, ptr %37, align 8
  %.not69 = icmp eq i8 %38, 0
  %narrow = select i1 %.not69, i8 32, i8 %38
  %spec.select = sext i8 %narrow to i32
  %39 = getelementptr inbounds i8, ptr %34, i64 16
  %40 = load ptr, ptr %39, align 8
  call void (ptr, ptr, ...) @zend_throw_error(ptr noundef %31, ptr noundef nonnull @.str.71, ptr noundef nonnull %33, i32 noundef %36, i32 noundef %spec.select, ptr noundef %40) #25
  br label %56

41:                                               ; preds = %23
  %42 = getelementptr inbounds i8, ptr %25, i64 204
  %43 = load i32, ptr %42, align 4
  %.not66 = icmp eq i32 %43, 0
  br i1 %.not66, label %44, label %50

44:                                               ; preds = %41
  %45 = getelementptr inbounds i8, ptr %25, i64 200
  %46 = load i32, ptr %45, align 8
  %.not67 = icmp eq i32 %46, 0
  br i1 %.not67, label %47, label %50

47:                                               ; preds = %44
  %48 = getelementptr inbounds i8, ptr %25, i64 208
  %49 = load i32, ptr %48, align 8
  %.not68 = icmp eq i32 %49, 0
  br i1 %.not68, label %54, label %50

50:                                               ; preds = %47, %44, %41
  %51 = load ptr, ptr @date_ce_date_malformed_interval_string_exception, align 8
  %52 = load ptr, ptr %3, align 8
  %53 = getelementptr inbounds i8, ptr %52, i64 24
  call void (ptr, ptr, ...) @zend_throw_error(ptr noundef %51, ptr noundef nonnull @.str.72, ptr noundef nonnull %53) #25
  br label %56

54:                                               ; preds = %47
  %55 = load ptr, ptr %3, align 8
  call fastcc void @date_interval_instantiate_from_time(ptr noundef %1, ptr noundef nonnull %25, ptr noundef %55)
  br label %56

56:                                               ; preds = %54, %50, %30
  call void @timelib_time_dtor(ptr noundef %25) #25
  %57 = load ptr, ptr %4, align 8
  call void @timelib_error_container_dtor(ptr noundef %57) #25
  br label %58

58:                                               ; preds = %56, %.thread94
  ret void
}